target datalayout = "e-m:e-p270:32:32-p271:32:32-p272:64:64-i64:64-i128:128-f80:128-n8:16:32:64-S128"
target triple = "x86_64-pc-linux-gnu"

%struct.strbuf = type { i64, i64, ptr }
%struct.sparse_checkout_check_rules_opts = type { i32, i32, ptr }
%struct.repository = type { ptr, ptr, ptr, ptr, ptr, %struct.strmap, %struct.strmap, %struct.repo_path_cache, ptr, ptr, ptr, ptr, %struct.repo_settings, ptr, ptr, ptr, ptr, ptr, ptr, i32, i32, i32, ptr, ptr, i32, i32, i8 }
%struct.strmap = type { %struct.hashmap, ptr, i8 }
%struct.hashmap = type { ptr, ptr, ptr, i32, i32, i32, i32, i8 }
%struct.repo_path_cache = type { ptr, ptr, ptr, ptr, ptr, ptr, ptr }
%struct.repo_settings = type { i32, i32, i32, i32, i32, i32, i32, i32, i32, i32, i32, i32, ptr, i32, i32, i32, i32, i32, i32, i32, i64, i64, i64 }
%struct.pattern_list = type { i32, i32, ptr, ptr, i32, i32, %struct.hashmap, %struct.hashmap }
%struct.object_id = type { [32 x i8], i32 }
%struct.index_state = type { ptr, i32, i32, i32, i32, ptr, ptr, ptr, %struct.cache_time, i8, i32, %struct.hashmap, %struct.hashmap, %struct.object_id, ptr, ptr, ptr, ptr, ptr, ptr, ptr }
%struct.cache_time = type { i32, i32 }

@the_repository = external global ptr, align 8
@core_apply_sparse_checkout = external global i32, align 4
@core_sparse_checkout_cone = external global i32, align 4
@.str.8 = private unnamed_addr constant [1 x i8] zeroinitializer, align 1
@stdout = external global ptr, align 8
@strbuf_slopbuf = external global [0 x i8], align 1
@.str.36 = private unnamed_addr constant [11 x i8] c"./strbuf.h\00", align 1
@.str.37 = private unnamed_addr constant [30 x i8] c"strbuf_setlen() beyond buffer\00", align 1
@stdin = external global ptr, align 8
@.str.55 = private unnamed_addr constant [49 x i8] c"unable to load existing sparse-checkout patterns\00", align 1
@.str.57 = private unnamed_addr constant [38 x i8] c"unable to unquote C-style string '%s'\00", align 1
@check_rules_opts = internal global %struct.sparse_checkout_check_rules_opts zeroinitializer, align 8
@builtin_sparse_checkout_check_rules_usage = internal constant [2 x ptr] [ptr @.str.72, ptr null], align 16
@.str.71 = private unnamed_addr constant [2 x i8] c"r\00", align 1
@__const.check_rules.line = private unnamed_addr constant %struct.strbuf { i64 0, i64 0, ptr @strbuf_slopbuf }, align 8
@__const.check_rules.unquoted = private unnamed_addr constant %struct.strbuf { i64 0, i64 0, ptr @strbuf_slopbuf }, align 8

; Function Attrs: inlinehint nounwind uwtable
define internal void @strbuf_setlen(ptr noundef %0, i64 noundef %1) #4 {
  %3 = alloca ptr, align 8
  %4 = alloca i64, align 8
  store ptr %0, ptr %3, align 8, !tbaa !152
  store i64 %1, ptr %4, align 8, !tbaa !91
  %5 = load i64, ptr %4, align 8, !tbaa !91
  %6 = load ptr, ptr %3, align 8, !tbaa !152
  %7 = getelementptr inbounds nuw %struct.strbuf, ptr %6, i32 0, i32 0
  %8 = load i64, ptr %7, align 8, !tbaa !154
  %9 = icmp ne i64 %8, 0
  br i1 %9, label %10, label %15

10:                                               ; preds = %2
  %11 = load ptr, ptr %3, align 8, !tbaa !152
  %12 = getelementptr inbounds nuw %struct.strbuf, ptr %11, i32 0, i32 0
  %13 = load i64, ptr %12, align 8, !tbaa !154
  %14 = sub i64 %13, 1
  br label %16

15:                                               ; preds = %2
  br label %16

16:                                               ; preds = %15, %10
  %17 = phi i64 [ %14, %10 ], [ 0, %15 ]
  %18 = icmp ugt i64 %5, %17
  br i1 %18, label %19, label %20

19:                                               ; preds = %16
  call void (ptr, i32, ptr, ...) @BUG_fl(ptr noundef @.str.36, i32 noundef 167, ptr noundef @.str.37) #10
  unreachable

20:                                               ; preds = %16
  %21 = load i64, ptr %4, align 8, !tbaa !91
  %22 = load ptr, ptr %3, align 8, !tbaa !152
  %23 = getelementptr inbounds nuw %struct.strbuf, ptr %22, i32 0, i32 1
  store i64 %21, ptr %23, align 8, !tbaa !134
  %24 = load ptr, ptr %3, align 8, !tbaa !152
  %25 = getelementptr inbounds nuw %struct.strbuf, ptr %24, i32 0, i32 2
  %26 = load ptr, ptr %25, align 8, !tbaa !148
  %27 = icmp ne ptr %26, @strbuf_slopbuf
  br i1 %27, label %28, label %34

28:                                               ; preds = %20
  %29 = load ptr, ptr %3, align 8, !tbaa !152
  %30 = getelementptr inbounds nuw %struct.strbuf, ptr %29, i32 0, i32 2
  %31 = load ptr, ptr %30, align 8, !tbaa !148
  %32 = load i64, ptr %4, align 8, !tbaa !91
  %33 = getelementptr inbounds nuw i8, ptr %31, i64 %32
  store i8 0, ptr %33, align 1, !tbaa !90
  br label %35

34:                                               ; preds = %20
  br label %35

35:                                               ; preds = %34, %28
  ret void
}

; Function Attrs: nounwind uwtable
define internal i32 @check_rules(ptr noundef %0, i32 noundef %1) #0 {
  %3 = alloca ptr, align 8
  %4 = alloca i32, align 4
  %5 = alloca %struct.strbuf, align 8
  %6 = alloca %struct.strbuf, align 8
  %7 = alloca ptr, align 8
  %8 = alloca i32, align 4
  %9 = alloca ptr, align 8
  store ptr %0, ptr %3, align 8, !tbaa !96
  store i32 %1, ptr %4, align 4, !tbaa !4
  call void @llvm.lifetime.start.p0(i64 24, ptr %5) #9
  call void @llvm.memcpy.p0.p0.i64(ptr align 8 %5, ptr align 8 @__const.check_rules.line, i64 24, i1 false)
  call void @llvm.lifetime.start.p0(i64 24, ptr %6) #9
  call void @llvm.memcpy.p0.p0.i64(ptr align 8 %6, ptr align 8 @__const.check_rules.unquoted, i64 24, i1 false)
  call void @llvm.lifetime.start.p0(i64 8, ptr %7) #9
  call void @llvm.lifetime.start.p0(i64 4, ptr %8) #9
  %10 = load i32, ptr %4, align 4, !tbaa !4
  %11 = icmp ne i32 %10, 0
  %12 = select i1 %11, i32 0, i32 10
  store i32 %12, ptr %8, align 4, !tbaa !4
  call void @llvm.lifetime.start.p0(i64 8, ptr %9) #9
  %13 = load i32, ptr %4, align 4, !tbaa !4
  %14 = icmp ne i32 %13, 0
  %15 = select i1 %14, ptr @strbuf_getline_nul, ptr @strbuf_getline
  store ptr %15, ptr %9, align 8, !tbaa !15
  %16 = load ptr, ptr %3, align 8, !tbaa !96
  %17 = load ptr, ptr @the_repository, align 8, !tbaa !13
  %18 = getelementptr inbounds nuw %struct.repository, ptr %17, i32 0, i32 15
  %19 = load ptr, ptr %18, align 8, !tbaa !105
  %20 = getelementptr inbounds nuw %struct.index_state, ptr %19, i32 0, i32 20
  store ptr %16, ptr %20, align 8, !tbaa !106
  br label %21

21:                                               ; preds = %62, %2
  %22 = load ptr, ptr %9, align 8, !tbaa !15
  %23 = load ptr, ptr @stdin, align 8, !tbaa !65
  %24 = call i32 %22(ptr noundef %5, ptr noundef %23)
  %25 = icmp ne i32 %24, 0
  %26 = xor i1 %25, true
  br i1 %26, label %27, label %63

27:                                               ; preds = %21
  %28 = getelementptr inbounds nuw %struct.strbuf, ptr %5, i32 0, i32 2
  %29 = load ptr, ptr %28, align 8, !tbaa !148
  store ptr %29, ptr %7, align 8, !tbaa !11
  %30 = load i32, ptr %4, align 4, !tbaa !4
  %31 = icmp ne i32 %30, 0
  br i1 %31, label %51, label %32

32:                                               ; preds = %27
  %33 = getelementptr inbounds nuw %struct.strbuf, ptr %5, i32 0, i32 2
  %34 = load ptr, ptr %33, align 8, !tbaa !148
  %35 = getelementptr inbounds i8, ptr %34, i64 0
  %36 = load i8, ptr %35, align 1, !tbaa !90
  %37 = sext i8 %36 to i32
  %38 = icmp eq i32 %37, 34
  br i1 %38, label %39, label %51

39:                                               ; preds = %32
  call void @strbuf_setlen(ptr noundef %6, i64 noundef 0)
  %40 = getelementptr inbounds nuw %struct.strbuf, ptr %5, i32 0, i32 2
  %41 = load ptr, ptr %40, align 8, !tbaa !148
  %42 = call i32 @unquote_c_style(ptr noundef %6, ptr noundef %41, ptr noundef null)
  %43 = icmp ne i32 %42, 0
  br i1 %43, label %44, label %48

44:                                               ; preds = %39
  %45 = call ptr @_(ptr noundef @.str.57)
  %46 = getelementptr inbounds nuw %struct.strbuf, ptr %5, i32 0, i32 2
  %47 = load ptr, ptr %46, align 8, !tbaa !148
  call void (ptr, ...) @die(ptr noundef %45, ptr noundef %47) #10
  unreachable

48:                                               ; preds = %39
  %49 = getelementptr inbounds nuw %struct.strbuf, ptr %6, i32 0, i32 2
  %50 = load ptr, ptr %49, align 8, !tbaa !148
  store ptr %50, ptr %7, align 8, !tbaa !11
  br label %51

51:                                               ; preds = %48, %32, %27
  %52 = load ptr, ptr %7, align 8, !tbaa !11
  %53 = load ptr, ptr @the_repository, align 8, !tbaa !13
  %54 = getelementptr inbounds nuw %struct.repository, ptr %53, i32 0, i32 15
  %55 = load ptr, ptr %54, align 8, !tbaa !105
  %56 = call i32 @path_in_sparse_checkout(ptr noundef %52, ptr noundef %55)
  %57 = icmp ne i32 %56, 0
  br i1 %57, label %58, label %62

58:                                               ; preds = %51
  %59 = load ptr, ptr %7, align 8, !tbaa !11
  %60 = load ptr, ptr @stdout, align 8, !tbaa !65
  %61 = load i32, ptr %8, align 4, !tbaa !4
  call void @write_name_quoted(ptr noundef %59, ptr noundef %60, i32 noundef %61)
  br label %62

62:                                               ; preds = %58, %51
  br label %21, !llvm.loop !180

63:                                               ; preds = %21
  call void @strbuf_release(ptr noundef %5)
  call void @strbuf_release(ptr noundef %6)
  call void @llvm.lifetime.end.p0(i64 8, ptr %9) #9
  call void @llvm.lifetime.end.p0(i64 4, ptr %8) #9
  call void @llvm.lifetime.end.p0(i64 8, ptr %7) #9
  call void @llvm.lifetime.end.p0(i64 24, ptr %6) #9
  call void @llvm.lifetime.end.p0(i64 24, ptr %5) #9
  ret i32 0
}

; Function Attrs: nounwind uwtable
define internal i32 @update_cone_mode(ptr noundef %0) #0 {
  %2 = alloca i32, align 4
  %3 = alloca ptr, align 8
  store ptr %0, ptr %3, align 8, !tbaa !103
  %4 = load ptr, ptr %3, align 8, !tbaa !103
  %5 = load i32, ptr %4, align 4, !tbaa !4
  %6 = icmp eq i32 %5, -1
  br i1 %6, label %7, label %13

7:                                                ; preds = %1
  %8 = load i32, ptr @core_apply_sparse_checkout, align 4, !tbaa !4
  %9 = icmp ne i32 %8, 0
  br i1 %9, label %10, label %13

10:                                               ; preds = %7
  %11 = load i32, ptr @core_sparse_checkout_cone, align 4, !tbaa !4
  %12 = load ptr, ptr %3, align 8, !tbaa !103
  store i32 %11, ptr %12, align 4, !tbaa !4
  br label %13

13:                                               ; preds = %10, %7, %1
  store i32 1, ptr @core_apply_sparse_checkout, align 4, !tbaa !4
  %14 = load ptr, ptr %3, align 8, !tbaa !103
  %15 = load i32, ptr %14, align 4, !tbaa !4
  %16 = icmp eq i32 %15, 1
  br i1 %16, label %21, label %17

17:                                               ; preds = %13
  %18 = load ptr, ptr %3, align 8, !tbaa !103
  %19 = load i32, ptr %18, align 4, !tbaa !4
  %20 = icmp eq i32 %19, -1
  br i1 %20, label %21, label %22

21:                                               ; preds = %17, %13
  store i32 1, ptr @core_sparse_checkout_cone, align 4, !tbaa !4
  store i32 2, ptr %2, align 4
  br label %23

22:                                               ; preds = %17
  store i32 0, ptr @core_sparse_checkout_cone, align 4, !tbaa !4
  store i32 1, ptr %2, align 4
  br label %23

23:                                               ; preds = %22, %21
  %24 = load i32, ptr %2, align 4
  ret i32 %24
}

; Function Attrs: nounwind uwtable
define internal i32 @sparse_checkout_check_rules(i32 noundef %0, ptr noundef %1, ptr noundef %2, ptr noundef %3) #0 {
  %5 = alloca i32, align 4
  %6 = alloca ptr, align 8
  %7 = alloca ptr, align 8
  %8 = alloca ptr, align 8
  %9 = alloca ptr, align 8
  %10 = alloca i32, align 4
  %11 = alloca %struct.pattern_list, align 8
  %12 = alloca ptr, align 8
  store i32 %0, ptr %5, align 4, !tbaa !4
  store ptr %1, ptr %6, align 8, !tbaa !8
  store ptr %2, ptr %7, align 8, !tbaa !11
  store ptr %3, ptr %8, align 8, !tbaa !13
  call void @llvm.lifetime.start.p0(i64 8, ptr %9) #9
  call void @llvm.lifetime.start.p0(i64 4, ptr %10) #9
  call void @llvm.lifetime.start.p0(i64 128, ptr %11) #9
  call void @llvm.memset.p0.i64(ptr align 8 %11, i8 0, i64 128, i1 false)
  call void @llvm.lifetime.start.p0(i64 8, ptr %12) #9
  store i32 -1, ptr @check_rules_opts, align 8, !tbaa !86
  %13 = load i32, ptr %5, align 4, !tbaa !4
  %14 = load ptr, ptr %6, align 8, !tbaa !8
  %15 = load ptr, ptr %7, align 8, !tbaa !11
  %16 = call i32 @parse_options(i32 noundef %13, ptr noundef %14, ptr noundef %15, ptr noundef @sparse_checkout_check_rules.builtin_sparse_checkout_check_rules_options, ptr noundef @builtin_sparse_checkout_check_rules_usage, i32 noundef 0)
  store i32 %16, ptr %5, align 4, !tbaa !4
  %17 = load ptr, ptr getelementptr inbounds nuw (%struct.sparse_checkout_check_rules_opts, ptr @check_rules_opts, i32 0, i32 2), align 8, !tbaa !88
  %18 = icmp ne ptr %17, null
  br i1 %18, label %19, label %23

19:                                               ; preds = %4
  %20 = load i32, ptr @check_rules_opts, align 8, !tbaa !86
  %21 = icmp slt i32 %20, 0
  br i1 %21, label %22, label %23

22:                                               ; preds = %19
  store i32 1, ptr @check_rules_opts, align 8, !tbaa !86
  br label %23

23:                                               ; preds = %22, %19, %4
  %24 = call i32 @update_cone_mode(ptr noundef @check_rules_opts)
  %25 = load i32, ptr @core_sparse_checkout_cone, align 4, !tbaa !4
  %26 = getelementptr inbounds nuw %struct.pattern_list, ptr %11, i32 0, i32 4
  store i32 %25, ptr %26, align 8, !tbaa !48
  %27 = load ptr, ptr getelementptr inbounds nuw (%struct.sparse_checkout_check_rules_opts, ptr @check_rules_opts, i32 0, i32 2), align 8, !tbaa !88
  %28 = icmp ne ptr %27, null
  br i1 %28, label %29, label %37

29:                                               ; preds = %23
  %30 = load ptr, ptr getelementptr inbounds nuw (%struct.sparse_checkout_check_rules_opts, ptr @check_rules_opts, i32 0, i32 2), align 8, !tbaa !88
  %31 = call ptr @xfopen(ptr noundef %30, ptr noundef @.str.71)
  store ptr %31, ptr %9, align 8, !tbaa !65
  %32 = load i32, ptr %5, align 4, !tbaa !4
  %33 = load ptr, ptr %6, align 8, !tbaa !8
  %34 = load ptr, ptr %9, align 8, !tbaa !65
  call void @add_patterns_from_input(ptr noundef %11, i32 noundef %32, ptr noundef %33, ptr noundef %34)
  %35 = load ptr, ptr %9, align 8, !tbaa !65
  %36 = call i32 @fclose(ptr noundef %35)
  br label %46

37:                                               ; preds = %23
  %38 = call ptr @get_sparse_checkout_filename()
  store ptr %38, ptr %12, align 8, !tbaa !11
  %39 = load ptr, ptr %12, align 8, !tbaa !11
  %40 = call i32 @add_patterns_from_file_to_list(ptr noundef %39, ptr noundef @.str.8, i32 noundef 0, ptr noundef %11, ptr noundef null, i32 noundef 0)
  %41 = icmp ne i32 %40, 0
  br i1 %41, label %42, label %44

42:                                               ; preds = %37
  %43 = call ptr @_(ptr noundef @.str.55)
  call void (ptr, ...) @die(ptr noundef %43) #10
  unreachable

44:                                               ; preds = %37
  %45 = load ptr, ptr %12, align 8, !tbaa !11
  call void @free(ptr noundef %45) #9
  br label %46

46:                                               ; preds = %44, %29
  %47 = load i32, ptr getelementptr inbounds nuw (%struct.sparse_checkout_check_rules_opts, ptr @check_rules_opts, i32 0, i32 1), align 4, !tbaa !89
  %48 = call i32 @check_rules(ptr noundef %11, i32 noundef %47)
  store i32 %48, ptr %10, align 4, !tbaa !4
  call void @clear_pattern_list(ptr noundef %11)
  %49 = load ptr, ptr getelementptr inbounds nuw (%struct.sparse_checkout_check_rules_opts, ptr @check_rules_opts, i32 0, i32 2), align 8, !tbaa !88
  call void @free(ptr noundef %49) #9
  %50 = load i32, ptr %10, align 4, !tbaa !4
  call void @llvm.lifetime.end.p0(i64 8, ptr %12) #9
  call void @llvm.lifetime.end.p0(i64 128, ptr %11) #9
  call void @llvm.lifetime.end.p0(i64 4, ptr %10) #9
  call void @llvm.lifetime.end.p0(i64 8, ptr %9) #9
  ret i32 %50
}