; Function Attrs: nounwind uwtable
define internal noundef i32 @sparse_checkout_check_rules(i32 noundef %0, ptr noundef %1, ptr noundef %2, ptr readnone captures(none) %3) #0 {
  %5 = alloca %struct.strbuf, align 8
  %6 = alloca %struct.strbuf, align 8
  %7 = alloca %struct.pattern_list, align 8
  call void @llvm.lifetime.start.p0(i64 128, ptr nonnull %7) #13
  call void @llvm.memset.p0.i64(ptr noundef nonnull align 8 dereferenceable(128) %7, i8 0, i64 128, i1 false)
  store i32 -1, ptr @check_rules_opts, align 8, !tbaa !79
  %8 = tail call i32 @parse_options(i32 noundef %0, ptr noundef %1, ptr noundef %2, ptr noundef nonnull @sparse_checkout_check_rules.builtin_sparse_checkout_check_rules_options, ptr noundef nonnull @builtin_sparse_checkout_check_rules_usage, i32 noundef 0) #13
  %9 = load ptr, ptr getelementptr inbounds nuw (i8, ptr @check_rules_opts, i64 8), align 8, !tbaa !81
  %10 = icmp ne ptr %9, null
  %11 = load i32, ptr @check_rules_opts, align 8
  %12 = icmp slt i32 %11, 0
  %or.cond = select i1 %10, i1 %12, i1 false
  br i1 %or.cond, label %update_cone_mode.exit.sink.split, label %13

13:                                               ; preds = %4
  %14 = icmp eq i32 %11, -1
  %15 = load i32, ptr @core_apply_sparse_checkout, align 4
  %16 = icmp ne i32 %15, 0
  %or.cond.i = select i1 %14, i1 %16, i1 false
  br i1 %or.cond.i, label %17, label %update_cone_mode.exit

17:                                               ; preds = %13
  %18 = load i32, ptr @core_sparse_checkout_cone, align 4, !tbaa !37
  br label %update_cone_mode.exit.sink.split

update_cone_mode.exit.sink.split:                 ; preds = %4, %17
  %.sink = phi i32 [ %18, %17 ], [ 1, %4 ]
  store i32 %.sink, ptr @check_rules_opts, align 8, !tbaa !37
  br label %update_cone_mode.exit

update_cone_mode.exit:                            ; preds = %update_cone_mode.exit.sink.split, %13
  %19 = phi i32 [ %11, %13 ], [ %.sink, %update_cone_mode.exit.sink.split ]
  store i32 1, ptr @core_apply_sparse_checkout, align 4, !tbaa !37
  %20 = add i32 %19, 1
  %switch.and = and i32 %20, -3
  %switch.selectcmp = icmp eq i32 %switch.and, 0
  %21 = zext i1 %switch.selectcmp to i32
  store i32 %21, ptr @core_sparse_checkout_cone, align 4, !tbaa !37
  %22 = getelementptr inbounds nuw i8, ptr %7, i64 24
  store i32 %21, ptr %22, align 8, !tbaa !38
  %.not = icmp eq ptr %9, null
  br i1 %.not, label %26, label %23

23:                                               ; preds = %update_cone_mode.exit
  %24 = tail call ptr @xfopen(ptr noundef nonnull %9, ptr noundef nonnull @.str.71) #13
  call fastcc void @add_patterns_from_input(ptr noundef nonnull %7, i32 noundef %8, ptr noundef %1, ptr noundef %24)
  %25 = call i32 @fclose(ptr noundef %24)
  br label %32

26:                                               ; preds = %update_cone_mode.exit
  %27 = tail call ptr @get_sparse_checkout_filename() #13
  %28 = call i32 @add_patterns_from_file_to_list(ptr noundef %27, ptr noundef nonnull @.str.8, i32 noundef 0, ptr noundef nonnull %7, ptr noundef null, i32 noundef 0) #13
  %.not10 = icmp eq i32 %28, 0
  br i1 %.not10, label %31, label %29

29:                                               ; preds = %26
  %30 = call fastcc ptr @_(ptr noundef nonnull @.str.55)
  call void (ptr, ...) @die(ptr noundef %30) #14
  unreachable

31:                                               ; preds = %26
  call void @free(ptr noundef %27) #13
  br label %32

32:                                               ; preds = %31, %23
  %33 = load i32, ptr getelementptr inbounds nuw (i8, ptr @check_rules_opts, i64 4), align 4, !tbaa !82
  call void @llvm.lifetime.start.p0(i64 24, ptr nonnull %5) #13
  call void @llvm.memcpy.p0.p0.i64(ptr noundef nonnull align 8 dereferenceable(24) %5, ptr noundef nonnull align 8 dereferenceable(24) @__const.check_rules.unquoted, i64 24, i1 false)
  call void @llvm.lifetime.start.p0(i64 24, ptr nonnull %6) #13
  call void @llvm.memcpy.p0.p0.i64(ptr noundef nonnull align 8 dereferenceable(24) %6, ptr noundef nonnull align 8 dereferenceable(24) @__const.check_rules.unquoted, i64 24, i1 false)
  %.not.i = icmp eq i32 %33, 0
  %34 = select i1 %.not.i, i32 10, i32 0
  %35 = select i1 %.not.i, ptr @strbuf_getline, ptr @strbuf_getline_nul
  %36 = load ptr, ptr @the_repository, align 8, !tbaa !17
  %37 = getelementptr inbounds nuw i8, ptr %36, i64 384
  %38 = load ptr, ptr %37, align 8, !tbaa !83
  %39 = getelementptr inbounds nuw i8, ptr %38, i64 248
  store ptr %7, ptr %39, align 8, !tbaa !84
  %40 = load ptr, ptr @stdin, align 8, !tbaa !53
  %41 = call i32 %35(ptr noundef nonnull %5, ptr noundef %40) #13, !callees !96
  %.not710.i = icmp eq i32 %41, 0
  br i1 %.not710.i, label %.lr.ph.i, label %check_rules.exit

.lr.ph.i:                                         ; preds = %32
  %42 = getelementptr inbounds nuw i8, ptr %5, i64 16
  %43 = getelementptr inbounds nuw i8, ptr %6, i64 8
  %44 = getelementptr inbounds nuw i8, ptr %6, i64 16
  br i1 %.not.i, label %.lr.ph.split.us.i, label %.lr.ph.split.i

.lr.ph.split.us.i:                                ; preds = %.lr.ph.i, %62
  %45 = load ptr, ptr %42, align 8, !tbaa !97
  %46 = load i8, ptr %45, align 1, !tbaa !99
  %47 = icmp eq i8 %46, 34
  br i1 %47, label %48, label %55

48:                                               ; preds = %.lr.ph.split.us.i
  store i64 0, ptr %43, align 8, !tbaa !100
  %49 = load ptr, ptr %44, align 8, !tbaa !97
  %.not9.i.us.i = icmp eq ptr %49, @strbuf_slopbuf
  br i1 %.not9.i.us.i, label %strbuf_setlen.exit.us.i, label %50

50:                                               ; preds = %48
  store i8 0, ptr %49, align 1, !tbaa !99
  %.pre.i = load ptr, ptr %42, align 8, !tbaa !97
  br label %strbuf_setlen.exit.us.i

strbuf_setlen.exit.us.i:                          ; preds = %50, %48
  %51 = phi ptr [ %.pre.i, %50 ], [ %45, %48 ]
  %52 = call i32 @unquote_c_style(ptr noundef nonnull %6, ptr noundef %51, ptr noundef null) #13
  %.not8.us.i = icmp eq i32 %52, 0
  br i1 %.not8.us.i, label %53, label %.split.us.i

53:                                               ; preds = %strbuf_setlen.exit.us.i
  %54 = load ptr, ptr %44, align 8, !tbaa !97
  br label %55

55:                                               ; preds = %53, %.lr.ph.split.us.i
  %.0.us.i = phi ptr [ %54, %53 ], [ %45, %.lr.ph.split.us.i ]
  %56 = load ptr, ptr @the_repository, align 8, !tbaa !17
  %57 = getelementptr inbounds nuw i8, ptr %56, i64 384
  %58 = load ptr, ptr %57, align 8, !tbaa !83
  %59 = call i32 @path_in_sparse_checkout(ptr noundef %.0.us.i, ptr noundef %58) #13
  %.not9.us.i = icmp eq i32 %59, 0
  br i1 %.not9.us.i, label %62, label %60

60:                                               ; preds = %55
  %61 = load ptr, ptr @stdout, align 8, !tbaa !53
  call void @write_name_quoted(ptr noundef %.0.us.i, ptr noundef %61, i32 noundef %34) #13
  br label %62

62:                                               ; preds = %60, %55
  %63 = load ptr, ptr @stdin, align 8, !tbaa !53
  %64 = call i32 %35(ptr noundef nonnull %5, ptr noundef %63) #13, !callees !96
  %.not7.us.i = icmp eq i32 %64, 0
  br i1 %.not7.us.i, label %.lr.ph.split.us.i, label %check_rules.exit, !llvm.loop !101

.lr.ph.split.i:                                   ; preds = %.lr.ph.i, %74
  %65 = load ptr, ptr %42, align 8, !tbaa !97
  %66 = load ptr, ptr @the_repository, align 8, !tbaa !17
  %67 = getelementptr inbounds nuw i8, ptr %66, i64 384
  %68 = load ptr, ptr %67, align 8, !tbaa !83
  %69 = call i32 @path_in_sparse_checkout(ptr noundef %65, ptr noundef %68) #13
  %.not9.i = icmp eq i32 %69, 0
  br i1 %.not9.i, label %74, label %72

.split.us.i:                                      ; preds = %strbuf_setlen.exit.us.i
  %70 = call fastcc ptr @_(ptr noundef nonnull @.str.57)
  %71 = load ptr, ptr %42, align 8, !tbaa !97
  call void (ptr, ...) @die(ptr noundef %70, ptr noundef %71) #14
  unreachable

72:                                               ; preds = %.lr.ph.split.i
  %73 = load ptr, ptr @stdout, align 8, !tbaa !53
  call void @write_name_quoted(ptr noundef %65, ptr noundef %73, i32 noundef %34) #13
  br label %74

74:                                               ; preds = %72, %.lr.ph.split.i
  %75 = load ptr, ptr @stdin, align 8, !tbaa !53
  %76 = call i32 %35(ptr noundef nonnull %5, ptr noundef %75) #13, !callees !96
  %.not7.i = icmp eq i32 %76, 0
  br i1 %.not7.i, label %.lr.ph.split.i, label %check_rules.exit, !llvm.loop !101

check_rules.exit:                                 ; preds = %74, %62, %32
  call void @strbuf_release(ptr noundef nonnull %5) #13
  call void @strbuf_release(ptr noundef nonnull %6) #13
  call void @llvm.lifetime.end.p0(i64 24, ptr nonnull %6) #13
  call void @llvm.lifetime.end.p0(i64 24, ptr nonnull %5) #13
  call void @clear_pattern_list(ptr noundef nonnull %7) #13
  %77 = load ptr, ptr getelementptr inbounds nuw (i8, ptr @check_rules_opts, i64 8), align 8, !tbaa !81
  call void @free(ptr noundef %77) #13
  call void @llvm.lifetime.end.p0(i64 128, ptr nonnull %7) #13
  ret i32 0
}